; Function Attrs: mustprogress uwtable
define void @_ZN9grpc_core21promise_filter_detail14ClientCallData33RecvTrailingMetadataReadyCallbackEPvN4absl12lts_202308026StatusE(ptr noundef %arg, ptr nocapture noundef readonly %error) #3 align 2 personality ptr @__gxx_personality_v0 {
entry:
  %agg.tmp = alloca %"class.absl::lts_20230802::Status", align 8
  %0 = load i64, ptr %error, align 8
  store i64 %0, ptr %agg.tmp, align 8
  %and.i.i.i = and i64 %0, 1
  %cmp.i.i.i = icmp eq i64 %and.i.i.i, 0
  br i1 %cmp.i.i.i, label %_ZN4absl12lts_202308026StatusC2ERKS1_.exit, label %if.then.i.i

if.then.i.i:                                      ; preds = %entry
  %sub.i.i.i = add nsw i64 %0, -1
  %1 = inttoptr i64 %sub.i.i.i to ptr
  %2 = atomicrmw add ptr %1, i32 1 monotonic, align 4
  br label %_ZN4absl12lts_202308026StatusC2ERKS1_.exit

_ZN4absl12lts_202308026StatusC2ERKS1_.exit:       ; preds = %entry, %if.then.i.i
  invoke void @_ZN9grpc_core21promise_filter_detail14ClientCallData25RecvTrailingMetadataReadyEN4absl12lts_202308026StatusE(ptr noundef nonnull align 16 dereferenceable(272) %arg, ptr noundef nonnull %agg.tmp)
          to label %invoke.cont unwind label %lpad

invoke.cont:                                      ; preds = %_ZN4absl12lts_202308026StatusC2ERKS1_.exit
  %3 = load i64, ptr %agg.tmp, align 8
  %and.i.i.i1 = and i64 %3, 1
  %cmp.i.i.i2 = icmp eq i64 %and.i.i.i1, 0
  br i1 %cmp.i.i.i2, label %_ZN4absl12lts_202308026StatusD2Ev.exit, label %if.then.i.i3

if.then.i.i3:                                     ; preds = %invoke.cont
  invoke void @_ZN4absl12lts_202308026Status15UnrefNonInlinedEm(i64 noundef %3)
          to label %_ZN4absl12lts_202308026StatusD2Ev.exit unwind label %terminate.lpad.i

terminate.lpad.i:                                 ; preds = %if.then.i.i3
  %4 = landingpad { ptr, i32 }
          catch ptr null
  %5 = extractvalue { ptr, i32 } %4, 0
  call void @__clang_call_terminate(ptr %5) #32
  unreachable

_ZN4absl12lts_202308026StatusD2Ev.exit:           ; preds = %invoke.cont, %if.then.i.i3
  ret void

lpad:                                             ; preds = %_ZN4absl12lts_202308026StatusC2ERKS1_.exit
  %6 = landingpad { ptr, i32 }
          cleanup
  call void @_ZN4absl12lts_202308026StatusD2Ev(ptr noundef nonnull align 8 dereferenceable(8) %agg.tmp) #31
  resume { ptr, i32 } %6
}